target datalayout = "e-m:e-p270:32:32-p271:32:32-p272:64:64-i64:64-i128:128-f80:128-n8:16:32:64-S128"
target triple = "x86_64-unknown-linux-gnu"

%struct.FlashPartInfo = type { ptr, [6 x i8], i8, i32, i32, i32, i16, i8, ptr }
%struct.Flash = type { %struct.SSIPeripheral, ptr, ptr, i32, i32, i8, [16 x i8], i32, i32, i8, i8, i8, i32, i32, i32, i32, i8, i8, i8, i8, i8, i8, i8, i8, i8, i8, i8, i8, i8, i8, i8, i8, i8, i8, i8, i8, i8, i64, ptr }
%struct.SSIPeripheral = type { %struct.DeviceState, ptr, i8, i8 }
%struct.DeviceState = type { %struct.Object, ptr, ptr, i8, i8, i64, ptr, i32, i8, ptr, %struct.NamedGPIOListHead, %struct.NamedClockListHead, %struct.BusStateHead, i32, i32, i32, %struct.ResettableState, ptr, %struct.MemReentrancyGuard }
%struct.Object = type { ptr, ptr, ptr, i32, ptr }
%struct.NamedGPIOListHead = type { ptr }
%struct.NamedClockListHead = type { ptr }
%struct.BusStateHead = type { ptr }
%struct.ResettableState = type { i32, i8, i8 }
%struct.MemReentrancyGuard = type { i8 }

; Function Attrs: nounwind sspstrong uwtable
define internal i32 @get_addr_length(ptr noundef %s) #0 {
entry:
  %retval = alloca i32, align 4
  %s.addr = alloca ptr, align 8
  store ptr %s, ptr %s.addr, align 8
  %0 = load ptr, ptr %s.addr, align 8
  %pi = getelementptr inbounds %struct.Flash, ptr %0, i32 0, i32 38
  %1 = load ptr, ptr %pi, align 8
  %flags = getelementptr inbounds %struct.FlashPartInfo, ptr %1, i32 0, i32 6
  %2 = load i16, ptr %flags, align 4
  %conv = zext i16 %2 to i32
  %cmp = icmp eq i32 %conv, 4
  br i1 %cmp, label %if.then, label %if.end

if.then:                                          ; preds = %entry
  store i32 2, ptr %retval, align 4
  br label %return

if.end:                                           ; preds = %entry
  %3 = load ptr, ptr %s.addr, align 8
  %cmd_in_progress = getelementptr inbounds %struct.Flash, ptr %3, i32 0, i32 11
  %4 = load i8, ptr %cmd_in_progress, align 2
  %conv2 = zext i8 %4 to i32
  switch i32 %conv2, label %sw.default [
    i32 90, label %sw.bb
    i32 18, label %sw.bb3
    i32 62, label %sw.bb3
    i32 52, label %sw.bb3
    i32 19, label %sw.bb3
    i32 236, label %sw.bb3
    i32 33, label %sw.bb3
    i32 92, label %sw.bb3
    i32 220, label %sw.bb3
    i32 12, label %sw.bb3
    i32 60, label %sw.bb3
    i32 108, label %sw.bb3
    i32 188, label %sw.bb3
  ]

sw.bb:                                            ; preds = %if.end
  store i32 3, ptr %retval, align 4
  br label %return

sw.bb3:                                           ; preds = %if.end, %if.end, %if.end, %if.end, %if.end, %if.end, %if.end, %if.end, %if.end, %if.end, %if.end, %if.end
  store i32 4, ptr %retval, align 4
  br label %return

sw.default:                                       ; preds = %if.end
  %5 = load ptr, ptr %s.addr, align 8
  %four_bytes_address_mode = getelementptr inbounds %struct.Flash, ptr %5, i32 0, i32 26
  %6 = load i8, ptr %four_bytes_address_mode, align 2
  %tobool = trunc i8 %6 to i1
  %cond = select i1 %tobool, i32 4, i32 3
  store i32 %cond, ptr %retval, align 4
  br label %return

return:                                           ; preds = %sw.default, %sw.bb3, %sw.bb, %if.then
  %7 = load i32, ptr %retval, align 4
  ret i32 %7
}