; Function Attrs: mustprogress nofree norecurse nosync nounwind sspstrong willreturn memory(read, inaccessiblemem: none) uwtable
define internal fastcc range(i32 2, 5) i32 @get_addr_length(ptr noundef readonly captures(none) %s) unnamed_addr #7 {
entry:
  %pi = getelementptr inbounds nuw i8, ptr %s, i64 280
  %0 = load ptr, ptr %pi, align 8
  %flags = getelementptr inbounds nuw i8, ptr %0, i64 28
  %1 = load i16, ptr %flags, align 4
  %cmp = icmp eq i16 %1, 4
  br i1 %cmp, label %return, label %if.end

if.end:                                           ; preds = %entry
  %cmd_in_progress = getelementptr inbounds nuw i8, ptr %s, i64 230
  %2 = load i8, ptr %cmd_in_progress, align 2
  switch i8 %2, label %sw.default [
    i8 90, label %return
    i8 18, label %sw.bb3
    i8 62, label %sw.bb3
    i8 52, label %sw.bb3
    i8 19, label %sw.bb3
    i8 -20, label %sw.bb3
    i8 33, label %sw.bb3
    i8 92, label %sw.bb3
    i8 -36, label %sw.bb3
    i8 12, label %sw.bb3
    i8 60, label %sw.bb3
    i8 108, label %sw.bb3
    i8 -68, label %sw.bb3
  ]

sw.bb3:                                           ; preds = %if.end, %if.end, %if.end, %if.end, %if.end, %if.end, %if.end, %if.end, %if.end, %if.end, %if.end, %if.end
  br label %return

sw.default:                                       ; preds = %if.end
  %four_bytes_address_mode = getelementptr inbounds nuw i8, ptr %s, i64 258
  %3 = load i8, ptr %four_bytes_address_mode, align 2
  %tobool = trunc i8 %3 to i1
  %cond = select i1 %tobool, i32 4, i32 3
  br label %return

return:                                           ; preds = %if.end, %entry, %sw.default, %sw.bb3
  %retval.0 = phi i32 [ %cond, %sw.default ], [ 4, %sw.bb3 ], [ 2, %entry ], [ 3, %if.end ]
  ret i32 %retval.0
}